target datalayout = "e-m:e-p270:32:32-p271:32:32-p272:64:64-i64:64-i128:128-f80:128-n8:16:32:64-S128"
target triple = "x86_64-pc-linux-gnu"

%struct.expert_field = type { i32, i32 }

@hf_gsm_bsslap_cell_id_disc = internal global i32 0, align 4
@ei_gsm_bsslap_not_decoded_yet = internal global %struct.expert_field zeroinitializer, align 4
@ett_bsslap_cell_list = internal global i32 0, align 4
@.str.51 = private unnamed_addr constant [8 x i8] c"Cell %u\00", align 1

; Function Attrs: null_pointer_is_valid sspstrong uwtable
define internal zeroext i16 @de_cell_id_list(ptr noundef %0, ptr noundef %1, ptr noundef %2, i32 noundef %3, i32 noundef %4, ptr noundef %5, i32 noundef %6) #1 {
  %8 = alloca ptr, align 8
  %9 = alloca ptr, align 8
  %10 = alloca ptr, align 8
  %11 = alloca i32, align 4
  %12 = alloca i32, align 4
  %13 = alloca ptr, align 8
  %14 = alloca i32, align 4
  %15 = alloca i32, align 4
  %16 = alloca i8, align 1
  %17 = alloca i8, align 1
  %18 = alloca i8, align 1
  %19 = alloca ptr, align 8
  %20 = alloca ptr, align 8
  store ptr %0, ptr %8, align 8
  store ptr %1, ptr %9, align 8
  store ptr %2, ptr %10, align 8
  store i32 %3, ptr %11, align 4
  store i32 %4, ptr %12, align 4
  store ptr %5, ptr %13, align 8
  store i32 %6, ptr %14, align 4
  call void @llvm.lifetime.start.p0(i64 4, ptr %15) #3
  call void @llvm.lifetime.start.p0(i64 1, ptr %16) #3
  call void @llvm.lifetime.start.p0(i64 1, ptr %17) #3
  call void @llvm.lifetime.start.p0(i64 1, ptr %18) #3
  call void @llvm.lifetime.start.p0(i64 8, ptr %19) #3
  store ptr null, ptr %19, align 8
  call void @llvm.lifetime.start.p0(i64 8, ptr %20) #3
  store ptr null, ptr %20, align 8
  %21 = load i32, ptr %11, align 4
  store i32 %21, ptr %15, align 4
  %22 = load ptr, ptr %8, align 8
  %23 = load i32, ptr %15, align 4
  %24 = call zeroext i8 @tvb_get_uint8(ptr noundef %22, i32 noundef %23)
  store i8 %24, ptr %17, align 1
  store i8 0, ptr %18, align 1
  br label %25

25:                                               ; preds = %89, %7
  %26 = load i32, ptr %12, align 4
  %27 = icmp ugt i32 %26, 0
  br i1 %27, label %28, label %102

28:                                               ; preds = %25
  %29 = load i8, ptr %18, align 1
  %30 = add i8 %29, 1
  store i8 %30, ptr %18, align 1
  store i8 0, ptr %16, align 1
  %31 = load ptr, ptr %9, align 8
  %32 = load ptr, ptr %8, align 8
  %33 = load i32, ptr %15, align 4
  %34 = load i32, ptr @ett_bsslap_cell_list, align 4
  %35 = load i8, ptr %18, align 1
  %36 = zext i8 %35 to i32
  %37 = call ptr (ptr, ptr, i32, i32, i32, ptr, ptr, ...) @proto_tree_add_subtree_format(ptr noundef %31, ptr noundef %32, i32 noundef %33, i32 noundef -1, i32 noundef %34, ptr noundef %19, ptr noundef @.str.51, i32 noundef %36)
  store ptr %37, ptr %20, align 8
  %38 = load ptr, ptr %13, align 8
  %39 = icmp ne ptr %38, null
  br i1 %39, label %40, label %43

40:                                               ; preds = %28
  %41 = load ptr, ptr %13, align 8
  %42 = getelementptr i8, ptr %41, i64 0
  store i8 0, ptr %42, align 1
  br label %43

43:                                               ; preds = %40, %28
  %44 = load ptr, ptr %20, align 8
  %45 = load i32, ptr @hf_gsm_bsslap_cell_id_disc, align 4
  %46 = load ptr, ptr %8, align 8
  %47 = load i32, ptr %15, align 4
  %48 = call ptr @proto_tree_add_item(ptr noundef %44, i32 noundef %45, ptr noundef %46, i32 noundef %47, i32 noundef 1, i32 noundef 0)
  %49 = load i32, ptr %15, align 4
  %50 = add i32 %49, 1
  store i32 %50, ptr %15, align 4
  %51 = load i32, ptr %12, align 4
  %52 = add i32 %51, -1
  store i32 %52, ptr %12, align 4
  %53 = load i8, ptr %17, align 1
  %54 = zext i8 %53 to i32
  switch i32 %54, label %80 [
    i32 0, label %55
    i32 1, label %67
    i32 2, label %79
    i32 3, label %79
  ]

55:                                               ; preds = %43
  %56 = load ptr, ptr %8, align 8
  %57 = load ptr, ptr %20, align 8
  %58 = load ptr, ptr %10, align 8
  %59 = load i32, ptr %15, align 4
  %60 = load i32, ptr %12, align 4
  %61 = call zeroext i16 @be_cell_id_aux(ptr noundef %56, ptr noundef %57, ptr noundef %58, i32 noundef %59, i32 noundef %60, ptr noundef null, i32 noundef 0, i8 noundef zeroext 0)
  %62 = zext i16 %61 to i32
  %63 = load i8, ptr %16, align 1
  %64 = zext i8 %63 to i32
  %65 = add i32 %64, %62
  %66 = trunc i32 %65 to i8
  store i8 %66, ptr %16, align 1
  br label %89

67:                                               ; preds = %43
  %68 = load ptr, ptr %8, align 8
  %69 = load ptr, ptr %20, align 8
  %70 = load ptr, ptr %10, align 8
  %71 = load i32, ptr %15, align 4
  %72 = load i32, ptr %12, align 4
  %73 = call zeroext i16 @be_cell_id_aux(ptr noundef %68, ptr noundef %69, ptr noundef %70, i32 noundef %71, i32 noundef %72, ptr noundef null, i32 noundef 0, i8 noundef zeroext 1)
  %74 = zext i16 %73 to i32
  %75 = load i8, ptr %16, align 1
  %76 = zext i8 %75 to i32
  %77 = add i32 %76, %74
  %78 = trunc i32 %77 to i8
  store i8 %78, ptr %16, align 1
  br label %89

79:                                               ; preds = %43, %43
  br label %80

80:                                               ; preds = %43, %79
  %81 = load ptr, ptr %20, align 8
  %82 = load ptr, ptr %10, align 8
  %83 = load ptr, ptr %8, align 8
  %84 = load i32, ptr %15, align 4
  %85 = load i32, ptr %12, align 4
  %86 = call ptr @proto_tree_add_expert(ptr noundef %81, ptr noundef %82, ptr noundef @ei_gsm_bsslap_not_decoded_yet, ptr noundef %83, i32 noundef %84, i32 noundef %85)
  %87 = load i32, ptr %12, align 4
  %88 = trunc i32 %87 to i8
  store i8 %88, ptr %16, align 1
  br label %89

89:                                               ; preds = %80, %67, %55
  %90 = load i8, ptr %16, align 1
  %91 = zext i8 %90 to i32
  %92 = load i32, ptr %15, align 4
  %93 = add i32 %92, %91
  store i32 %93, ptr %15, align 4
  %94 = load i8, ptr %16, align 1
  %95 = zext i8 %94 to i32
  %96 = load i32, ptr %12, align 4
  %97 = sub i32 %96, %95
  store i32 %97, ptr %12, align 4
  %98 = load ptr, ptr %19, align 8
  %99 = load i8, ptr %16, align 1
  %100 = zext i8 %99 to i32
  %101 = add i32 %100, 1
  call void @proto_item_set_len(ptr noundef %98, i32 noundef %101)
  br label %25, !llvm.loop !6

102:                                              ; preds = %25
  %103 = load i32, ptr %15, align 4
  %104 = load i32, ptr %11, align 4
  %105 = sub i32 %103, %104
  %106 = trunc i32 %105 to i16
  call void @llvm.lifetime.end.p0(i64 8, ptr %20) #3
  call void @llvm.lifetime.end.p0(i64 8, ptr %19) #3
  call void @llvm.lifetime.end.p0(i64 1, ptr %18) #3
  call void @llvm.lifetime.end.p0(i64 1, ptr %17) #3
  call void @llvm.lifetime.end.p0(i64 1, ptr %16) #3
  call void @llvm.lifetime.end.p0(i64 4, ptr %15) #3
  ret i16 %106
}