; Function Attrs: null_pointer_is_valid sspstrong uwtable
define internal zeroext i16 @de_cell_id_list(ptr noundef %0, ptr noundef %1, ptr noundef %2, i32 noundef %3, i32 noundef %4, ptr noundef writeonly captures(address_is_null) %5, i32 %6) #1 {
  %8 = alloca ptr, align 8
  call void @llvm.lifetime.start.p0(i64 8, ptr nonnull %8) #3
  store ptr null, ptr %8, align 8
  %9 = tail call zeroext i8 @tvb_get_uint8(ptr noundef %0, i32 noundef %3)
  %.not46 = icmp eq i32 %4, 0
  br i1 %.not46, label %._crit_edge, label %.lr.ph

.lr.ph:                                           ; preds = %7
  %.not45 = icmp eq ptr %5, null
  br label %10

10:                                               ; preds = %.lr.ph, %29
  %.049 = phi i8 [ 0, %.lr.ph ], [ %11, %29 ]
  %.04148 = phi i32 [ %4, %.lr.ph ], [ %32, %29 ]
  %.04347 = phi i32 [ %3, %.lr.ph ], [ %31, %29 ]
  %11 = add i8 %.049, 1
  %12 = load i32, ptr @ett_bsslap_cell_list, align 4
  %13 = zext i8 %11 to i32
  %14 = call ptr (ptr, ptr, i32, i32, i32, ptr, ptr, ...) @proto_tree_add_subtree_format(ptr noundef %1, ptr noundef %0, i32 noundef %.04347, i32 noundef -1, i32 noundef %12, ptr noundef nonnull %8, ptr noundef nonnull @.str.51, i32 noundef %13)
  br i1 %.not45, label %16, label %15

15:                                               ; preds = %10
  store i8 0, ptr %5, align 1
  br label %16

16:                                               ; preds = %15, %10
  %17 = load i32, ptr @hf_gsm_bsslap_cell_id_disc, align 4
  %18 = call ptr @proto_tree_add_item(ptr noundef %14, i32 noundef %17, ptr noundef %0, i32 noundef %.04347, i32 noundef 1, i32 noundef 0)
  %19 = add i32 %.04347, 1
  %20 = add i32 %.04148, -1
  switch i8 %9, label %27 [
    i8 0, label %21
    i8 1, label %24
  ]

21:                                               ; preds = %16
  %22 = call zeroext i16 @be_cell_id_aux(ptr noundef %0, ptr noundef %14, ptr noundef %2, i32 noundef %19, i32 noundef %20, ptr noundef null, i32 noundef 0, i8 noundef zeroext 0)
  %23 = zext i16 %22 to i32
  br label %29

24:                                               ; preds = %16
  %25 = call zeroext i16 @be_cell_id_aux(ptr noundef %0, ptr noundef %14, ptr noundef %2, i32 noundef %19, i32 noundef %20, ptr noundef null, i32 noundef 0, i8 noundef zeroext 1)
  %26 = zext i16 %25 to i32
  br label %29

27:                                               ; preds = %16
  %28 = call ptr @proto_tree_add_expert(ptr noundef %14, ptr noundef %2, ptr noundef nonnull @ei_gsm_bsslap_not_decoded_yet, ptr noundef %0, i32 noundef %19, i32 noundef %20)
  br label %29

29:                                               ; preds = %27, %24, %21
  %.042 = phi i32 [ %20, %27 ], [ %26, %24 ], [ %23, %21 ]
  %30 = and i32 %.042, 255
  %31 = add i32 %30, %19
  %32 = sub i32 %20, %30
  %33 = load ptr, ptr %8, align 8
  %34 = add nuw nsw i32 %30, 1
  call void @proto_item_set_len(ptr noundef %33, i32 noundef %34)
  %.not = icmp eq i32 %32, 0
  br i1 %.not, label %._crit_edge, label %10, !llvm.loop !6

._crit_edge:                                      ; preds = %29, %7
  %.043.lcssa = phi i32 [ %3, %7 ], [ %31, %29 ]
  %35 = sub i32 %.043.lcssa, %3
  %36 = trunc i32 %35 to i16
  call void @llvm.lifetime.end.p0(i64 8, ptr nonnull %8) #3
  ret i16 %36
}